#include <math.h>
#include <stdio.h>
#include <stdlib.h>
#include <string.h>


int main()
{
	char word[50][50];
	int n, i, len, j, out[50];
	scanf("%d", &n);
	for (i=1;i<=n;i++){
		scanf("%s", &word[i]);
		len = strlen(word[i]);
		if (word[i][len-1] == 'r')
			out[i] = 1;
		else if (word[i][len-1] == 'y')
			out[i] = 2;
		else if (word[i][len-1] == 'g')
			out[i] = 3;
	}
	for (i=1;i<=n;i++){
		len = strlen(word[i]);
		if (out[i] == 1 || out[i] == 2){
			word[i][len-2] = 0;
			word[i][len-1] = 0;
			printf("%s", word[i]);
		}
		if (out[i] == 3){
			word[i][len-3] = 0;
			word[i][len-2] = 0;
			word[i][len-1] = 0;
			printf("%s", word[i]);
		}
		printf("\n");
	}
	return 0;
}
